; Function Attrs: mustprogress uwtable
define ptr @proj_trans_get_last_used_operation(ptr noundef %0) local_unnamed_addr #0 {
  %2 = icmp eq ptr %0, null
  br i1 %2, label %19, label %3

3:                                                ; preds = %1
  %4 = getelementptr inbounds nuw i8, ptr %0, i64 840
  %5 = load i32, ptr %4, align 8, !tbaa !78
  %6 = icmp slt i32 %5, 0
  br i1 %6, label %19, label %7

7:                                                ; preds = %3
  %8 = getelementptr inbounds nuw i8, ptr %0, i64 816
  %9 = load ptr, ptr %8, align 8, !tbaa !76
  %10 = getelementptr inbounds nuw i8, ptr %0, i64 824
  %11 = load ptr, ptr %10, align 8, !tbaa !76
  %12 = icmp eq ptr %9, %11
  %13 = load ptr, ptr %0, align 8, !tbaa !49
  br i1 %12, label %.sink.split, label %14

14:                                               ; preds = %7
  %15 = zext nneg i32 %5 to i64
  %16 = getelementptr inbounds nuw %struct.PJCoordOperation, ptr %9, i64 %15, i32 10
  %17 = load ptr, ptr %16, align 8, !tbaa !79
  br label %.sink.split

.sink.split:                                      ; preds = %7, %14
  %.sink = phi ptr [ %17, %14 ], [ %0, %7 ]
  %18 = tail call ptr @proj_clone(ptr noundef %13, ptr noundef %.sink)
  br label %19

19:                                               ; preds = %.sink.split, %1, %3
  %.0 = phi ptr [ null, %3 ], [ null, %1 ], [ %18, %.sink.split ]
  ret ptr %.0
}